target datalayout = "e-m:e-p270:32:32-p271:32:32-p272:64:64-i64:64-i128:128-f80:128-n8:16:32:64-S128"
target triple = "x86_64-pc-linux-gnu"

%struct.access_mask_info = type { ptr, ptr, ptr, ptr }
%struct.expert_field = type { i32, i32 }
%struct._e_guid_t = type { i32, i16, i16, [8 x i8] }
%struct._dcerpc_info = type { ptr, i32, i64, i8, i32, i32, i32, i32, i32, i32, i32, i32, i32, i32, ptr, ptr, ptr }
%struct._packet_info = type { ptr, ptr, i32, i32, %struct.nstime_t, %struct.nstime_t, %struct.nstime_t, i32, ptr, ptr, ptr, ptr, %struct._address, %struct._address, %struct._address, %struct._address, %struct._address, %struct._address, i32, ptr, i32, %struct.anon, i32, i32, i32, i32, ptr, i32, ptr, ptr, i16, i16, i32, i32, i16, i32, i32, ptr, ptr, ptr, i8, i8, i16, i16, i16, i32, i16, i16, ptr, ptr, ptr, ptr, ptr, i32 }
%struct.nstime_t = type { i64, i32 }
%struct._address = type { i32, i32, ptr, ptr }
%struct.anon = type { i8, [3 x i8] }
%struct._dcerpc_call_value = type { %struct._e_guid_t, i16, %struct._e_guid_t, i16, i32, %struct.nstime_t, i32, i32, ptr, ptr, ptr, i32 }
%struct.BUFFER = type { ptr, ptr, ptr }

@spoolss_printer_access_mask_info = hidden global %struct.access_mask_info { ptr @.str, ptr @spoolss_printer_specific_rights, ptr null, ptr null }, align 8
@hf_rc = internal global i32 0, align 4
@hf_needed = internal global i32 0, align 4
@hf_returned = internal global i32 0, align 4
@hf_printername = internal global i32 0, align 4
@hf_printerdesc = internal global i32 0, align 4
@hf_printercomment = internal global i32 0, align 4
@.str.435 = private unnamed_addr constant [7 x i8] c"Buffer\00", align 1
@hf_printer_flags = internal global i32 0, align 4
@hf_printer_guid = internal global i32 0, align 4
@hf_printer_action = internal global i32 0, align 4
@ett_PRINTER_INFO = internal global i32 0, align 4
@ei_printer_info_level = internal global %struct.expert_field zeroinitializer, align 4
@.str.1206 = private unnamed_addr constant [11 x i8] c", level %d\00", align 1
@.str.1208 = private unnamed_addr constant [20 x i8] c"Print info level %d\00", align 1

; Function Attrs: nounwind uwtable
define internal i32 @dissect_PRINTER_INFO_7(ptr noundef %0, i32 noundef %1, ptr noundef %2, ptr noundef %3, ptr noundef %4, ptr noundef %5) #0 {
  %7 = alloca ptr, align 8
  %8 = alloca i32, align 4
  %9 = alloca ptr, align 8
  %10 = alloca ptr, align 8
  %11 = alloca ptr, align 8
  %12 = alloca ptr, align 8
  store ptr %0, ptr %7, align 8
  store i32 %1, ptr %8, align 4
  store ptr %2, ptr %9, align 8
  store ptr %3, ptr %10, align 8
  store ptr %4, ptr %11, align 8
  store ptr %5, ptr %12, align 8
  %13 = load ptr, ptr %7, align 8
  %14 = load i32, ptr %8, align 4
  %15 = load ptr, ptr %9, align 8
  %16 = load ptr, ptr %10, align 8
  %17 = load ptr, ptr %11, align 8
  %18 = load ptr, ptr %12, align 8
  %19 = load i32, ptr @hf_printer_guid, align 4
  %20 = call i32 @dissect_spoolss_relstr(ptr noundef %13, i32 noundef %14, ptr noundef %15, ptr noundef %16, ptr noundef %17, ptr noundef %18, i32 noundef %19, i32 noundef 0, ptr noundef null)
  store i32 %20, ptr %8, align 4
  %21 = load ptr, ptr %7, align 8
  %22 = load i32, ptr %8, align 4
  %23 = load ptr, ptr %9, align 8
  %24 = load ptr, ptr %10, align 8
  %25 = load ptr, ptr %11, align 8
  %26 = load ptr, ptr %12, align 8
  %27 = load i32, ptr @hf_printer_action, align 4
  %28 = call i32 @dissect_ndr_uint32(ptr noundef %21, i32 noundef %22, ptr noundef %23, ptr noundef %24, ptr noundef %25, ptr noundef %26, i32 noundef %27, ptr noundef null)
  store i32 %28, ptr %8, align 4
  %29 = load i32, ptr %8, align 4
  ret i32 %29
}

; Function Attrs: nounwind uwtable
define internal i32 @dissect_PRINTER_INFO_3(ptr noundef %0, i32 noundef %1, ptr noundef %2, ptr noundef %3, ptr noundef %4, ptr noundef %5) #0 {
  %7 = alloca ptr, align 8
  %8 = alloca i32, align 4
  %9 = alloca ptr, align 8
  %10 = alloca ptr, align 8
  %11 = alloca ptr, align 8
  %12 = alloca ptr, align 8
  store ptr %0, ptr %7, align 8
  store i32 %1, ptr %8, align 4
  store ptr %2, ptr %9, align 8
  store ptr %3, ptr %10, align 8
  store ptr %4, ptr %11, align 8
  store ptr %5, ptr %12, align 8
  %13 = load ptr, ptr %7, align 8
  %14 = load i32, ptr %8, align 4
  %15 = load ptr, ptr %9, align 8
  %16 = load ptr, ptr %10, align 8
  %17 = load ptr, ptr %11, align 8
  %18 = load ptr, ptr %12, align 8
  %19 = load i32, ptr @hf_printer_flags, align 4
  %20 = call i32 @dissect_ndr_uint32(ptr noundef %13, i32 noundef %14, ptr noundef %15, ptr noundef %16, ptr noundef %17, ptr noundef %18, i32 noundef %19, ptr noundef null)
  store i32 %20, ptr %8, align 4
  %21 = load ptr, ptr %7, align 8
  %22 = load i32, ptr %8, align 4
  %23 = load ptr, ptr %9, align 8
  %24 = load ptr, ptr %10, align 8
  %25 = load ptr, ptr %12, align 8
  %26 = call i32 @dissect_nt_sec_desc(ptr noundef %21, i32 noundef %22, ptr noundef %23, ptr noundef %24, ptr noundef %25, i32 noundef 0, i32 noundef -1, ptr noundef @spoolss_printer_access_mask_info)
  store i32 %26, ptr %8, align 4
  %27 = load i32, ptr %8, align 4
  ret i32 %27
}

; Function Attrs: nounwind uwtable
define internal i32 @dissect_PRINTER_INFO_1(ptr noundef %0, i32 noundef %1, ptr noundef %2, ptr noundef %3, ptr noundef %4, ptr noundef %5) #0 {
  %7 = alloca ptr, align 8
  %8 = alloca i32, align 4
  %9 = alloca ptr, align 8
  %10 = alloca ptr, align 8
  %11 = alloca ptr, align 8
  %12 = alloca ptr, align 8
  store ptr %0, ptr %7, align 8
  store i32 %1, ptr %8, align 4
  store ptr %2, ptr %9, align 8
  store ptr %3, ptr %10, align 8
  store ptr %4, ptr %11, align 8
  store ptr %5, ptr %12, align 8
  %13 = load ptr, ptr %7, align 8
  %14 = load i32, ptr %8, align 4
  %15 = load ptr, ptr %9, align 8
  %16 = load ptr, ptr %10, align 8
  %17 = load ptr, ptr %11, align 8
  %18 = load ptr, ptr %12, align 8
  %19 = load i32, ptr @hf_printer_flags, align 4
  %20 = call i32 @dissect_ndr_uint32(ptr noundef %13, i32 noundef %14, ptr noundef %15, ptr noundef %16, ptr noundef %17, ptr noundef %18, i32 noundef %19, ptr noundef null)
  store i32 %20, ptr %8, align 4
  %21 = load ptr, ptr %7, align 8
  %22 = load i32, ptr %8, align 4
  %23 = load ptr, ptr %9, align 8
  %24 = load ptr, ptr %10, align 8
  %25 = load ptr, ptr %11, align 8
  %26 = load ptr, ptr %12, align 8
  %27 = load i32, ptr @hf_printerdesc, align 4
  %28 = call i32 @dissect_spoolss_relstr(ptr noundef %21, i32 noundef %22, ptr noundef %23, ptr noundef %24, ptr noundef %25, ptr noundef %26, i32 noundef %27, i32 noundef 0, ptr noundef null)
  store i32 %28, ptr %8, align 4
  %29 = load ptr, ptr %7, align 8
  %30 = load i32, ptr %8, align 4
  %31 = load ptr, ptr %9, align 8
  %32 = load ptr, ptr %10, align 8
  %33 = load ptr, ptr %11, align 8
  %34 = load ptr, ptr %12, align 8
  %35 = load i32, ptr @hf_printername, align 4
  %36 = call i32 @dissect_spoolss_relstr(ptr noundef %29, i32 noundef %30, ptr noundef %31, ptr noundef %32, ptr noundef %33, ptr noundef %34, i32 noundef %35, i32 noundef 0, ptr noundef null)
  store i32 %36, ptr %8, align 4
  %37 = load ptr, ptr %7, align 8
  %38 = load i32, ptr %8, align 4
  %39 = load ptr, ptr %9, align 8
  %40 = load ptr, ptr %10, align 8
  %41 = load ptr, ptr %11, align 8
  %42 = load ptr, ptr %12, align 8
  %43 = load i32, ptr @hf_printercomment, align 4
  %44 = call i32 @dissect_spoolss_relstr(ptr noundef %37, i32 noundef %38, ptr noundef %39, ptr noundef %40, ptr noundef %41, ptr noundef %42, i32 noundef %43, i32 noundef 0, ptr noundef null)
  store i32 %44, ptr %8, align 4
  %45 = load i32, ptr %8, align 4
  ret i32 %45
}

; Function Attrs: nounwind uwtable
define internal i32 @dissect_spoolss_buffer(ptr noundef %0, i32 noundef %1, ptr noundef %2, ptr noundef %3, ptr noundef %4, ptr noundef %5, ptr noundef %6) #0 {
  %8 = alloca ptr, align 8
  %9 = alloca i32, align 4
  %10 = alloca ptr, align 8
  %11 = alloca ptr, align 8
  %12 = alloca ptr, align 8
  %13 = alloca ptr, align 8
  %14 = alloca ptr, align 8
  store ptr %0, ptr %8, align 8
  store i32 %1, ptr %9, align 4
  store ptr %2, ptr %10, align 8
  store ptr %3, ptr %11, align 8
  store ptr %4, ptr %12, align 8
  store ptr %5, ptr %13, align 8
  store ptr %6, ptr %14, align 8
  %15 = load ptr, ptr %14, align 8
  %16 = icmp ne ptr %15, null
  br i1 %16, label %17, label %19

17:                                               ; preds = %7
  %18 = load ptr, ptr %14, align 8
  call void @llvm.memset.p0.i64(ptr align 8 %18, i8 0, i64 24, i1 false)
  br label %19

19:                                               ; preds = %17, %7
  %20 = load ptr, ptr %14, align 8
  %21 = load ptr, ptr %12, align 8
  %22 = getelementptr inbounds %struct._dcerpc_info, ptr %21, i32 0, i32 16
  store ptr %20, ptr %22, align 8
  %23 = load ptr, ptr %8, align 8
  %24 = load i32, ptr %9, align 4
  %25 = load ptr, ptr %10, align 8
  %26 = load ptr, ptr %11, align 8
  %27 = load ptr, ptr %12, align 8
  %28 = load ptr, ptr %13, align 8
  %29 = call i32 @dissect_ndr_pointer(ptr noundef %23, i32 noundef %24, ptr noundef %25, ptr noundef %26, ptr noundef %27, ptr noundef %28, ptr noundef @dissect_spoolss_buffer_data, i32 noundef 2, ptr noundef @.str.435, i32 noundef -1)
  store i32 %29, ptr %9, align 4
  %30 = load i32, ptr %9, align 4
  ret i32 %30
}

; Function Attrs: nounwind uwtable
define internal i32 @SpoolssEnumPrinters_r(ptr noundef %0, i32 noundef %1, ptr noundef %2, ptr noundef %3, ptr noundef %4, ptr noundef %5) #0 {
  %7 = alloca ptr, align 8
  %8 = alloca i32, align 4
  %9 = alloca ptr, align 8
  %10 = alloca ptr, align 8
  %11 = alloca ptr, align 8
  %12 = alloca ptr, align 8
  %13 = alloca i32, align 4
  %14 = alloca ptr, align 8
  %15 = alloca i16, align 2
  %16 = alloca %struct.BUFFER, align 8
  %17 = alloca ptr, align 8
  %18 = alloca ptr, align 8
  store ptr %0, ptr %7, align 8
  store i32 %1, ptr %8, align 4
  store ptr %2, ptr %9, align 8
  store ptr %3, ptr %10, align 8
  store ptr %4, ptr %11, align 8
  store ptr %5, ptr %12, align 8
  %19 = load ptr, ptr %11, align 8
  %20 = getelementptr inbounds %struct._dcerpc_info, ptr %19, i32 0, i32 14
  %21 = load ptr, ptr %20, align 8
  store ptr %21, ptr %14, align 8
  %22 = load ptr, ptr %14, align 8
  %23 = getelementptr inbounds %struct._dcerpc_call_value, ptr %22, i32 0, i32 8
  %24 = load ptr, ptr %23, align 8
  %25 = ptrtoint ptr %24 to i64
  %26 = trunc i64 %25 to i32
  %27 = trunc i32 %26 to i16
  store i16 %27, ptr %15, align 2
  store ptr null, ptr %18, align 8
  %28 = load ptr, ptr %9, align 8
  %29 = getelementptr inbounds %struct._packet_info, ptr %28, i32 0, i32 1
  %30 = load ptr, ptr %29, align 8
  %31 = load i16, ptr %15, align 2
  %32 = sext i16 %31 to i32
  call void (ptr, i32, ptr, ...) @col_append_fstr(ptr noundef %30, i32 noundef 25, ptr noundef @.str.1206, i32 noundef %32)
  %33 = load ptr, ptr %7, align 8
  %34 = load i32, ptr %8, align 4
  %35 = load ptr, ptr %9, align 8
  %36 = load ptr, ptr %10, align 8
  %37 = load ptr, ptr %11, align 8
  %38 = load ptr, ptr %12, align 8
  %39 = call i32 @dissect_spoolss_buffer(ptr noundef %33, i32 noundef %34, ptr noundef %35, ptr noundef %36, ptr noundef %37, ptr noundef %38, ptr noundef %16)
  store i32 %39, ptr %8, align 4
  %40 = getelementptr inbounds %struct.BUFFER, ptr %16, i32 0, i32 0
  %41 = load ptr, ptr %40, align 8
  %42 = icmp ne ptr %41, null
  br i1 %42, label %43, label %107

43:                                               ; preds = %6
  %44 = getelementptr inbounds %struct.BUFFER, ptr %16, i32 0, i32 1
  %45 = load ptr, ptr %44, align 8
  %46 = getelementptr inbounds %struct.BUFFER, ptr %16, i32 0, i32 0
  %47 = load ptr, ptr %46, align 8
  %48 = load i32, ptr @ett_PRINTER_INFO, align 4
  %49 = load i16, ptr %15, align 2
  %50 = sext i16 %49 to i32
  %51 = call ptr (ptr, ptr, i32, i32, i32, ptr, ptr, ...) @proto_tree_add_subtree_format(ptr noundef %45, ptr noundef %47, i32 noundef 0, i32 noundef -1, i32 noundef %48, ptr noundef %17, ptr noundef @.str.1208, i32 noundef %50)
  store ptr %51, ptr %18, align 8
  %52 = load i16, ptr %15, align 2
  %53 = sext i16 %52 to i32
  switch i32 %53, label %102 [
    i32 0, label %54
    i32 1, label %62
    i32 2, label %70
    i32 3, label %78
    i32 5, label %86
    i32 7, label %94
  ]

54:                                               ; preds = %43
  %55 = getelementptr inbounds %struct.BUFFER, ptr %16, i32 0, i32 0
  %56 = load ptr, ptr %55, align 8
  %57 = load ptr, ptr %9, align 8
  %58 = load ptr, ptr %18, align 8
  %59 = load ptr, ptr %11, align 8
  %60 = load ptr, ptr %12, align 8
  %61 = call i32 @dissect_PRINTER_INFO_0(ptr noundef %56, i32 noundef 0, ptr noundef %57, ptr noundef %58, ptr noundef %59, ptr noundef %60)
  br label %106

62:                                               ; preds = %43
  %63 = getelementptr inbounds %struct.BUFFER, ptr %16, i32 0, i32 0
  %64 = load ptr, ptr %63, align 8
  %65 = load ptr, ptr %9, align 8
  %66 = load ptr, ptr %18, align 8
  %67 = load ptr, ptr %11, align 8
  %68 = load ptr, ptr %12, align 8
  %69 = call i32 @dissect_PRINTER_INFO_1(ptr noundef %64, i32 noundef 0, ptr noundef %65, ptr noundef %66, ptr noundef %67, ptr noundef %68)
  br label %106

70:                                               ; preds = %43
  %71 = getelementptr inbounds %struct.BUFFER, ptr %16, i32 0, i32 0
  %72 = load ptr, ptr %71, align 8
  %73 = load ptr, ptr %9, align 8
  %74 = load ptr, ptr %18, align 8
  %75 = load ptr, ptr %11, align 8
  %76 = load ptr, ptr %12, align 8
  %77 = call i32 @dissect_PRINTER_INFO_2(ptr noundef %72, i32 noundef 0, ptr noundef %73, ptr noundef %74, ptr noundef %75, ptr noundef %76)
  br label %106

78:                                               ; preds = %43
  %79 = getelementptr inbounds %struct.BUFFER, ptr %16, i32 0, i32 0
  %80 = load ptr, ptr %79, align 8
  %81 = load ptr, ptr %9, align 8
  %82 = load ptr, ptr %18, align 8
  %83 = load ptr, ptr %11, align 8
  %84 = load ptr, ptr %12, align 8
  %85 = call i32 @dissect_PRINTER_INFO_3(ptr noundef %80, i32 noundef 0, ptr noundef %81, ptr noundef %82, ptr noundef %83, ptr noundef %84)
  br label %106

86:                                               ; preds = %43
  %87 = getelementptr inbounds %struct.BUFFER, ptr %16, i32 0, i32 0
  %88 = load ptr, ptr %87, align 8
  %89 = load ptr, ptr %9, align 8
  %90 = load ptr, ptr %18, align 8
  %91 = load ptr, ptr %11, align 8
  %92 = load ptr, ptr %12, align 8
  %93 = call i32 @dissect_PRINTER_INFO_5(ptr noundef %88, i32 noundef 0, ptr noundef %89, ptr noundef %90, ptr noundef %91, ptr noundef %92)
  br label %106

94:                                               ; preds = %43
  %95 = getelementptr inbounds %struct.BUFFER, ptr %16, i32 0, i32 0
  %96 = load ptr, ptr %95, align 8
  %97 = load ptr, ptr %9, align 8
  %98 = load ptr, ptr %18, align 8
  %99 = load ptr, ptr %11, align 8
  %100 = load ptr, ptr %12, align 8
  %101 = call i32 @dissect_PRINTER_INFO_7(ptr noundef %96, i32 noundef 0, ptr noundef %97, ptr noundef %98, ptr noundef %99, ptr noundef %100)
  br label %106

102:                                              ; preds = %43
  %103 = load ptr, ptr %9, align 8
  %104 = load ptr, ptr %17, align 8
  %105 = call ptr @expert_add_info(ptr noundef %103, ptr noundef %104, ptr noundef @ei_printer_info_level)
  br label %106

106:                                              ; preds = %102, %94, %86, %78, %70, %62, %54
  br label %107

107:                                              ; preds = %106, %6
  %108 = load ptr, ptr %7, align 8
  %109 = load i32, ptr %8, align 4
  %110 = load ptr, ptr %9, align 8
  %111 = load ptr, ptr %10, align 8
  %112 = load ptr, ptr %11, align 8
  %113 = load ptr, ptr %12, align 8
  %114 = load i32, ptr @hf_needed, align 4
  %115 = call i32 @dissect_ndr_uint32(ptr noundef %108, i32 noundef %109, ptr noundef %110, ptr noundef %111, ptr noundef %112, ptr noundef %113, i32 noundef %114, ptr noundef null)
  store i32 %115, ptr %8, align 4
  %116 = load ptr, ptr %7, align 8
  %117 = load i32, ptr %8, align 4
  %118 = load ptr, ptr %9, align 8
  %119 = load ptr, ptr %10, align 8
  %120 = load ptr, ptr %11, align 8
  %121 = load ptr, ptr %12, align 8
  %122 = load i32, ptr @hf_returned, align 4
  %123 = call i32 @dissect_ndr_uint32(ptr noundef %116, i32 noundef %117, ptr noundef %118, ptr noundef %119, ptr noundef %120, ptr noundef %121, i32 noundef %122, ptr noundef %13)
  store i32 %123, ptr %8, align 4
  %124 = load ptr, ptr %7, align 8
  %125 = load i32, ptr %8, align 4
  %126 = load ptr, ptr %9, align 8
  %127 = load ptr, ptr %10, align 8
  %128 = load ptr, ptr %11, align 8
  %129 = load ptr, ptr %12, align 8
  %130 = load i32, ptr @hf_rc, align 4
  %131 = call i32 @dissect_doserror(ptr noundef %124, i32 noundef %125, ptr noundef %126, ptr noundef %127, ptr noundef %128, ptr noundef %129, i32 noundef %130, ptr noundef null)
  store i32 %131, ptr %8, align 4
  %132 = load i32, ptr %8, align 4
  ret i32 %132
}