; Function Attrs: nounwind uwtable
define internal i32 @SpoolssEnumPrinters_r(ptr noundef %0, i32 noundef %1, ptr noundef %2, ptr noundef %3, ptr noundef initializes((88, 96)) %4, ptr noundef %5) #0 {
  %7 = alloca i32, align 4
  %8 = alloca %struct.BUFFER, align 8
  %9 = alloca ptr, align 8
  %10 = getelementptr inbounds nuw i8, ptr %4, i64 72
  %11 = load ptr, ptr %10, align 8
  %12 = getelementptr inbounds nuw i8, ptr %11, i64 72
  %13 = load ptr, ptr %12, align 8
  %14 = ptrtoint ptr %13 to i64
  %15 = trunc i64 %14 to i32
  %16 = getelementptr inbounds nuw i8, ptr %2, i64 8
  %17 = load ptr, ptr %16, align 8
  %sext = shl i32 %15, 16
  %18 = ashr exact i32 %sext, 16
  tail call void (ptr, i32, ptr, ...) @col_append_fstr(ptr noundef %17, i32 noundef 25, ptr noundef nonnull @.str.1206, i32 noundef %18) #5
  call void @llvm.memset.p0.i64(ptr noundef nonnull align 8 dereferenceable(24) %8, i8 0, i64 24, i1 false)
  %19 = getelementptr inbounds nuw i8, ptr %4, i64 88
  store ptr %8, ptr %19, align 8
  %20 = call i32 @dissect_ndr_pointer(ptr noundef %0, i32 noundef %1, ptr noundef %2, ptr noundef %3, ptr noundef %4, ptr noundef %5, ptr noundef nonnull @dissect_spoolss_buffer_data, i32 noundef 2, ptr noundef nonnull @.str.435, i32 noundef -1) #5
  %21 = load ptr, ptr %8, align 8
  %.not = icmp eq ptr %21, null
  br i1 %.not, label %57, label %22

22:                                               ; preds = %6
  %23 = getelementptr inbounds nuw i8, ptr %8, i64 8
  %24 = load ptr, ptr %23, align 8
  %25 = load i32, ptr @ett_PRINTER_INFO, align 4
  %26 = call ptr (ptr, ptr, i32, i32, i32, ptr, ptr, ...) @proto_tree_add_subtree_format(ptr noundef %24, ptr noundef nonnull %21, i32 noundef 0, i32 noundef -1, i32 noundef %25, ptr noundef nonnull %9, ptr noundef nonnull @.str.1208, i32 noundef %18) #5
  switch i32 %18, label %54 [
    i32 0, label %27
    i32 1, label %29
    i32 2, label %39
    i32 3, label %41
    i32 5, label %46
    i32 7, label %48
  ]

27:                                               ; preds = %22
  %28 = load ptr, ptr %8, align 8
  call fastcc void @dissect_PRINTER_INFO_0(ptr noundef %28, ptr noundef nonnull %2, ptr noundef %26, ptr noundef nonnull %4, ptr noundef %5)
  br label %57

29:                                               ; preds = %22
  %30 = load ptr, ptr %8, align 8
  %31 = load i32, ptr @hf_printer_flags, align 4
  %32 = call i32 @dissect_ndr_uint32(ptr noundef %30, i32 noundef 0, ptr noundef nonnull %2, ptr noundef %26, ptr noundef nonnull %4, ptr noundef %5, i32 noundef %31, ptr noundef null) #5
  %33 = load i32, ptr @hf_printerdesc, align 4
  %34 = call fastcc i32 @dissect_spoolss_relstr(ptr noundef %30, i32 noundef %32, ptr noundef nonnull %2, ptr noundef %26, ptr noundef nonnull %4, ptr noundef %5, i32 noundef %33, i32 noundef 0, ptr noundef null)
  %35 = load i32, ptr @hf_printername, align 4
  %36 = call fastcc i32 @dissect_spoolss_relstr(ptr noundef %30, i32 noundef %34, ptr noundef nonnull %2, ptr noundef %26, ptr noundef nonnull %4, ptr noundef %5, i32 noundef %35, i32 noundef 0, ptr noundef null)
  %37 = load i32, ptr @hf_printercomment, align 4
  %38 = call fastcc i32 @dissect_spoolss_relstr(ptr noundef %30, i32 noundef %36, ptr noundef nonnull %2, ptr noundef %26, ptr noundef nonnull %4, ptr noundef %5, i32 noundef %37, i32 noundef 0, ptr noundef null)
  br label %57

39:                                               ; preds = %22
  %40 = load ptr, ptr %8, align 8
  call fastcc void @dissect_PRINTER_INFO_2(ptr noundef %40, ptr noundef nonnull %2, ptr noundef %26, ptr noundef nonnull %4, ptr noundef %5)
  br label %57

41:                                               ; preds = %22
  %42 = load ptr, ptr %8, align 8
  %43 = load i32, ptr @hf_printer_flags, align 4
  %44 = call i32 @dissect_ndr_uint32(ptr noundef %42, i32 noundef 0, ptr noundef nonnull %2, ptr noundef %26, ptr noundef nonnull %4, ptr noundef %5, i32 noundef %43, ptr noundef null) #5
  %45 = call i32 @dissect_nt_sec_desc(ptr noundef %42, i32 noundef %44, ptr noundef nonnull %2, ptr noundef %26, ptr noundef %5, i32 noundef 0, i32 noundef -1, ptr noundef nonnull @spoolss_printer_access_mask_info) #5
  br label %57

46:                                               ; preds = %22
  %47 = load ptr, ptr %8, align 8
  call fastcc void @dissect_PRINTER_INFO_5(ptr noundef %47, ptr noundef nonnull %2, ptr noundef %26, ptr noundef nonnull %4, ptr noundef %5)
  br label %57

48:                                               ; preds = %22
  %49 = load ptr, ptr %8, align 8
  %50 = load i32, ptr @hf_printer_guid, align 4
  %51 = call fastcc i32 @dissect_spoolss_relstr(ptr noundef %49, i32 noundef 0, ptr noundef nonnull %2, ptr noundef %26, ptr noundef nonnull %4, ptr noundef %5, i32 noundef %50, i32 noundef 0, ptr noundef null)
  %52 = load i32, ptr @hf_printer_action, align 4
  %53 = call i32 @dissect_ndr_uint32(ptr noundef %49, i32 noundef %51, ptr noundef nonnull %2, ptr noundef %26, ptr noundef nonnull %4, ptr noundef %5, i32 noundef %52, ptr noundef null) #5
  br label %57

54:                                               ; preds = %22
  %55 = load ptr, ptr %9, align 8
  %56 = call ptr @expert_add_info(ptr noundef nonnull %2, ptr noundef %55, ptr noundef nonnull @ei_printer_info_level) #5
  br label %57

57:                                               ; preds = %27, %29, %39, %41, %46, %48, %54, %6
  %58 = load i32, ptr @hf_needed, align 4
  %59 = call i32 @dissect_ndr_uint32(ptr noundef %0, i32 noundef %20, ptr noundef nonnull %2, ptr noundef %3, ptr noundef nonnull %4, ptr noundef %5, i32 noundef %58, ptr noundef null) #5
  %60 = load i32, ptr @hf_returned, align 4
  %61 = call i32 @dissect_ndr_uint32(ptr noundef %0, i32 noundef %59, ptr noundef nonnull %2, ptr noundef %3, ptr noundef nonnull %4, ptr noundef %5, i32 noundef %60, ptr noundef nonnull %7) #5
  %62 = load i32, ptr @hf_rc, align 4
  %63 = call i32 @dissect_doserror(ptr noundef %0, i32 noundef %61, ptr noundef nonnull %2, ptr noundef %3, ptr noundef nonnull %4, ptr noundef %5, i32 noundef %62, ptr noundef null) #5
  ret i32 %63
}